; ModuleID = '22/605.c'
source_filename = "22/605.c"
target datalayout = "e-m:e-p270:32:32-p271:32:32-p272:64:64-i64:64-f80:128-n8:16:32:64-S128"
target triple = "x86_64-pc-linux-gnu"

@.str = private unnamed_addr constant [3 x i8] c"%d\00", align 1
@.str.1 = private unnamed_addr constant [3 x i8] c"%c\00", align 1
@.str.2 = private unnamed_addr constant [3 x i8] c"No\00", align 1

; Function Attrs: noinline nounwind uwtable
define dso_local void @main() #0 {
  %1 = alloca [300 x i32], align 16
  %2 = alloca i32, align 4
  %3 = alloca i32, align 4
  %4 = alloca i32, align 4
  %5 = alloca i8, align 1
  %6 = alloca i32, align 4
  store i32 1, i32* %2, align 4
  store i32 0, i32* %3, align 4
  br label %7

7:                                                ; preds = %0, %19
  %8 = load i32, i32* %3, align 4
  %9 = zext i32 %8 to i64
  %10 = getelementptr inbounds [300 x i32], [300 x i32]* %1, i64 0, i64 %9
  %11 = call i32 (i8*, ...) @__isoc99_scanf(i8* getelementptr inbounds ([3 x i8], [3 x i8]* @.str, i64 0, i64 0), i32* %10)
  %12 = load i32, i32* %3, align 4
  %13 = add i32 %12, 1
  store i32 %13, i32* %3, align 4
  %14 = call i32 (i8*, ...) @__isoc99_scanf(i8* getelementptr inbounds ([3 x i8], [3 x i8]* @.str.1, i64 0, i64 0), i8* %5)
  %15 = load i8, i8* %5, align 1
  %16 = sext i8 %15 to i32
  %17 = icmp ne i32 %16, 44
  br i1 %17, label %18, label %19

18:                                               ; preds = %7
  br label %20

19:                                               ; preds = %7
  br label %7

20:                                               ; preds = %18
  br label %21

21:                                               ; preds = %29, %20
  %22 = load i32, i32* %2, align 4
  %23 = zext i32 %22 to i64
  %24 = getelementptr inbounds [300 x i32], [300 x i32]* %1, i64 0, i64 %23
  %25 = load i32, i32* %24, align 4
  %26 = getelementptr inbounds [300 x i32], [300 x i32]* %1, i64 0, i64 0
  %27 = load i32, i32* %26, align 16
  %28 = icmp eq i32 %25, %27
  br i1 %28, label %29, label %32

29:                                               ; preds = %21
  %30 = load i32, i32* %2, align 4
  %31 = add i32 %30, 1
  store i32 %31, i32* %2, align 4
  br label %21

32:                                               ; preds = %21
  %33 = load i32, i32* %3, align 4
  %34 = icmp eq i32 %33, 1
  br i1 %34, label %42, label %35

35:                                               ; preds = %32
  %36 = load i32, i32* %2, align 4
  %37 = load i32, i32* %3, align 4
  %38 = icmp eq i32 %36, %37
  br i1 %38, label %42, label %39

39:                                               ; preds = %35
  %40 = load i32, i32* %3, align 4
  %41 = icmp eq i32 %40, 0
  br i1 %41, label %42, label %44

42:                                               ; preds = %39, %35, %32
  %43 = call i32 (i8*, ...) @printf(i8* getelementptr inbounds ([3 x i8], [3 x i8]* @.str.2, i64 0, i64 0))
  br label %115

44:                                               ; preds = %39
  store i32 0, i32* %2, align 4
  br label %45

45:                                               ; preds = %88, %44
  %46 = load i32, i32* %2, align 4
  %47 = load i32, i32* %3, align 4
  %48 = sub i32 %47, 1
  %49 = icmp ult i32 %46, %48
  br i1 %49, label %50, label %91

50:                                               ; preds = %45
  %51 = load i32, i32* %2, align 4
  %52 = add i32 %51, 1
  store i32 %52, i32* %4, align 4
  br label %53

53:                                               ; preds = %84, %50
  %54 = load i32, i32* %4, align 4
  %55 = load i32, i32* %3, align 4
  %56 = icmp ult i32 %54, %55
  br i1 %56, label %57, label %87

57:                                               ; preds = %53
  %58 = load i32, i32* %2, align 4
  %59 = zext i32 %58 to i64
  %60 = getelementptr inbounds [300 x i32], [300 x i32]* %1, i64 0, i64 %59
  %61 = load i32, i32* %60, align 4
  %62 = load i32, i32* %4, align 4
  %63 = zext i32 %62 to i64
  %64 = getelementptr inbounds [300 x i32], [300 x i32]* %1, i64 0, i64 %63
  %65 = load i32, i32* %64, align 4
  %66 = icmp ult i32 %61, %65
  br i1 %66, label %67, label %83

67:                                               ; preds = %57
  %68 = load i32, i32* %2, align 4
  %69 = zext i32 %68 to i64
  %70 = getelementptr inbounds [300 x i32], [300 x i32]* %1, i64 0, i64 %69
  %71 = load i32, i32* %70, align 4
  store i32 %71, i32* %6, align 4
  %72 = load i32, i32* %4, align 4
  %73 = zext i32 %72 to i64
  %74 = getelementptr inbounds [300 x i32], [300 x i32]* %1, i64 0, i64 %73
  %75 = load i32, i32* %74, align 4
  %76 = load i32, i32* %2, align 4
  %77 = zext i32 %76 to i64
  %78 = getelementptr inbounds [300 x i32], [300 x i32]* %1, i64 0, i64 %77
  store i32 %75, i32* %78, align 4
  %79 = load i32, i32* %6, align 4
  %80 = load i32, i32* %4, align 4
  %81 = zext i32 %80 to i64
  %82 = getelementptr inbounds [300 x i32], [300 x i32]* %1, i64 0, i64 %81
  store i32 %79, i32* %82, align 4
  br label %83

83:                                               ; preds = %67, %57
  br label %84

84:                                               ; preds = %83
  %85 = load i32, i32* %4, align 4
  %86 = add i32 %85, 1
  store i32 %86, i32* %4, align 4
  br label %53

87:                                               ; preds = %53
  br label %88

88:                                               ; preds = %87
  %89 = load i32, i32* %2, align 4
  %90 = add i32 %89, 1
  store i32 %90, i32* %2, align 4
  br label %45

91:                                               ; preds = %45
  store i32 1, i32* %2, align 4
  br label %92

92:                                               ; preds = %111, %91
  %93 = load i32, i32* %2, align 4
  %94 = load i32, i32* %3, align 4
  %95 = icmp ult i32 %93, %94
  br i1 %95, label %96, label %114

96:                                               ; preds = %92
  %97 = load i32, i32* %2, align 4
  %98 = zext i32 %97 to i64
  %99 = getelementptr inbounds [300 x i32], [300 x i32]* %1, i64 0, i64 %98
  %100 = load i32, i32* %99, align 4
  %101 = getelementptr inbounds [300 x i32], [300 x i32]* %1, i64 0, i64 0
  %102 = load i32, i32* %101, align 16
  %103 = icmp ne i32 %100, %102
  br i1 %103, label %104, label %110

104:                                              ; preds = %96
  %105 = load i32, i32* %2, align 4
  %106 = zext i32 %105 to i64
  %107 = getelementptr inbounds [300 x i32], [300 x i32]* %1, i64 0, i64 %106
  %108 = load i32, i32* %107, align 4
  %109 = call i32 (i8*, ...) @printf(i8* getelementptr inbounds ([3 x i8], [3 x i8]* @.str, i64 0, i64 0), i32 %108)
  br label %114

110:                                              ; preds = %96
  br label %111

111:                                              ; preds = %110
  %112 = load i32, i32* %2, align 4
  %113 = add i32 %112, 1
  store i32 %113, i32* %2, align 4
  br label %92

114:                                              ; preds = %104, %92
  br label %115

115:                                              ; preds = %114, %42
  ret void
}

declare dso_local i32 @__isoc99_scanf(i8*, ...) #1

declare dso_local i32 @printf(i8*, ...) #1


!llvm.module.flags = !{!0}
!llvm.ident = !{!1}

!0 = !{i32 1, !"wchar_size", i32 4}
!1 = !{!"clang version 10.0.0-4ubuntu1 "}
